; Function Attrs: nounwind uwtable
define dso_local zeroext i1 @Curl_conn_needs_flush(ptr noundef %0, i32 noundef %1) local_unnamed_addr #1 {
  %3 = alloca i32, align 4
  %4 = getelementptr inbounds nuw i8, ptr %0, i64 24
  %5 = load ptr, ptr %4, align 8, !tbaa !56
  %6 = getelementptr inbounds nuw i8, ptr %5, i64 608
  %7 = sext i32 %1 to i64
  %8 = getelementptr inbounds [2 x ptr], ptr %6, i64 0, i64 %7
  %9 = load ptr, ptr %8, align 8, !tbaa !51
  call void @llvm.lifetime.start.p0(i64 4, ptr nonnull %3) #12
  store i32 0, ptr %3, align 4, !tbaa !44
  %.not.i = icmp eq ptr %9, null
  br i1 %.not.i, label %Curl_conn_cf_needs_flush.exit, label %10

10:                                               ; preds = %2
  %11 = load ptr, ptr %9, align 8, !tbaa !15
  %12 = getelementptr inbounds nuw i8, ptr %11, i64 112
  %13 = load ptr, ptr %12, align 8, !tbaa !50
  %14 = call i32 %13(ptr noundef nonnull %9, ptr noundef nonnull %0, i32 noundef 7, ptr noundef nonnull %3, ptr noundef null) #12
  %15 = icmp eq i32 %14, 0
  %.pre.i = load i32, ptr %3, align 4
  %16 = icmp ne i32 %.pre.i, 0
  %17 = select i1 %15, i1 %16, i1 false
  br label %Curl_conn_cf_needs_flush.exit

Curl_conn_cf_needs_flush.exit:                    ; preds = %2, %10
  %not..i = phi i1 [ %17, %10 ], [ false, %2 ]
  call void @llvm.lifetime.end.p0(i64 4, ptr nonnull %3) #12
  ret i1 %not..i
}